; ModuleID = 'source-C-CXX/61/3576.c'
source_filename = "source-C-CXX/61/3576.c"
target datalayout = "e-m:e-p270:32:32-p271:32:32-p272:64:64-i64:64-f80:128-n8:16:32:64-S128"
target triple = "x86_64-pc-linux-gnu"

@.str = private unnamed_addr constant [3 x i8] c"%s\00", align 1

; Function Attrs: nounwind sspstrong uwtable
define dso_local i32 @main() local_unnamed_addr #0 {
  %1 = alloca [200 x i8], align 16
  %2 = alloca [200 x i8], align 16
  %3 = getelementptr inbounds [200 x i8], [200 x i8]* %1, i64 0, i64 0
  call void @llvm.lifetime.start.p0i8(i64 200, i8* nonnull %3) #4
  %4 = getelementptr inbounds [200 x i8], [200 x i8]* %2, i64 0, i64 0
  call void @llvm.lifetime.start.p0i8(i64 200, i8* nonnull %4) #4
  %5 = call i32 (i8*, ...) bitcast (i32 (...)* @gets to i32 (i8*, ...)*)(i8* nonnull %3) #4
  br label %6

6:                                                ; preds = %26, %0
  %7 = phi i32 [ 0, %0 ], [ %29, %26 ]
  %8 = phi i32 [ 0, %0 ], [ %28, %26 ]
  %9 = sext i32 %7 to i64
  %10 = getelementptr inbounds [200 x i8], [200 x i8]* %1, i64 0, i64 %9
  %11 = load i8, i8* %10, align 1, !tbaa !5
  switch i8 %11, label %12 [
    i8 0, label %30
    i8 32, label %15
  ]

12:                                               ; preds = %6
  %13 = zext i32 %8 to i64
  %14 = getelementptr inbounds [200 x i8], [200 x i8]* %2, i64 0, i64 %13
  store i8 %11, i8* %14, align 1, !tbaa !5
  br label %26

15:                                               ; preds = %6, %15
  %16 = phi i64 [ %17, %15 ], [ %9, %6 ]
  %17 = add nsw i64 %16, 1
  %18 = getelementptr inbounds [200 x i8], [200 x i8]* %1, i64 0, i64 %17
  %19 = load i8, i8* %18, align 1, !tbaa !5
  %20 = icmp eq i8 %19, 32
  br i1 %20, label %15, label %21, !llvm.loop !8

21:                                               ; preds = %15
  %22 = trunc i64 %17 to i32
  %23 = zext i32 %8 to i64
  %24 = getelementptr inbounds [200 x i8], [200 x i8]* %2, i64 0, i64 %23
  store i8 32, i8* %24, align 1, !tbaa !5
  %25 = add nsw i32 %22, -1
  br label %26

26:                                               ; preds = %12, %21
  %27 = phi i32 [ %7, %12 ], [ %25, %21 ]
  %28 = add nuw nsw i32 %8, 1
  %29 = add nsw i32 %27, 1
  br label %6, !llvm.loop !10

30:                                               ; preds = %6
  %31 = zext i32 %8 to i64
  %32 = getelementptr inbounds [200 x i8], [200 x i8]* %2, i64 0, i64 %31
  store i8 0, i8* %32, align 1, !tbaa !5
  %33 = call i32 (i8*, ...) @printf(i8* nonnull dereferenceable(1) getelementptr inbounds ([3 x i8], [3 x i8]* @.str, i64 0, i64 0), i8* nonnull %4)
  call void @llvm.lifetime.end.p0i8(i64 200, i8* nonnull %4) #4
  call void @llvm.lifetime.end.p0i8(i64 200, i8* nonnull %3) #4
  ret i32 0
}

; Function Attrs: argmemonly mustprogress nofree nosync nounwind willreturn
declare void @llvm.lifetime.start.p0i8(i64 immarg, i8* nocapture) #1

declare i32 @gets(...) local_unnamed_addr #2

; Function Attrs: nofree nounwind
declare noundef i32 @printf(i8* nocapture noundef readonly, ...) local_unnamed_addr #3

; Function Attrs: argmemonly mustprogress nofree nosync nounwind willreturn
declare void @llvm.lifetime.end.p0i8(i64 immarg, i8* nocapture) #1


!llvm.module.flags = !{!0, !1, !2, !3}
!llvm.ident = !{!4}

!0 = !{i32 1, !"wchar_size", i32 4}
!1 = !{i32 7, !"PIC Level", i32 2}
!2 = !{i32 7, !"PIE Level", i32 2}
!3 = !{i32 7, !"uwtable", i32 1}
!4 = !{!"clang version 13.0.0"}
!5 = !{!6, !6, i64 0}
!6 = !{!"omnipotent char", !7, i64 0}
!7 = !{!"Simple C/C++ TBAA"}
!8 = distinct !{!8, !9}
!9 = !{!"llvm.loop.mustprogress"}
!10 = distinct !{!10, !9}
